target datalayout = "e-m:e-p270:32:32-p271:32:32-p272:64:64-i64:64-i128:128-f80:128-n8:16:32:64-S128"
target triple = "x86_64-pc-linux-gnu"

%struct.strbuf = type { i64, i64, ptr }
%struct.attr_state = type { ptr, ptr }

@git_attr__true = dso_local constant [14 x i8] c"(builtin)true\00", align 1
@git_attr__false = dso_local constant [16 x i8] c"\00(builtin)false\00", align 16
@blank = internal constant [5 x i8] c" \09\0D\0A\00", align 1
@stderr = external global ptr, align 8
@.str.14 = private unnamed_addr constant [1 x i8] zeroinitializer, align 1
@git_gettext_enabled = external global i32, align 4
@.str.15 = private unnamed_addr constant [9 x i8] c"builtin_\00", align 1
@__const.report_invalid_attr.err = private unnamed_addr constant %struct.strbuf { i64 0, i64 0, ptr @strbuf_slopbuf }, align 8
@.str.16 = private unnamed_addr constant [35 x i8] c"%.*s is not a valid attribute name\00", align 1
@.str.17 = private unnamed_addr constant [11 x i8] c"%s: %s:%d\0A\00", align 1

; Function Attrs: inlinehint nounwind uwtable
define internal ptr @_(ptr noundef %0) #5 {
  %2 = alloca ptr, align 8
  %3 = alloca ptr, align 8
  store ptr %0, ptr %3, align 8, !tbaa !9
  %4 = load ptr, ptr %3, align 8, !tbaa !9
  %5 = load i8, ptr %4, align 1, !tbaa !17
  %6 = icmp ne i8 %5, 0
  br i1 %6, label %8, label %7

7:                                                ; preds = %1
  store ptr @.str.14, ptr %2, align 8
  br label %16

8:                                                ; preds = %1
  %9 = load i32, ptr @git_gettext_enabled, align 4, !tbaa !13
  %10 = icmp ne i32 %9, 0
  br i1 %10, label %13, label %11

11:                                               ; preds = %8
  %12 = load ptr, ptr %3, align 8, !tbaa !9
  store ptr %12, ptr %2, align 8
  br label %16

13:                                               ; preds = %8
  %14 = load ptr, ptr %3, align 8, !tbaa !9
  %15 = call ptr @dcgettext(ptr noundef null, ptr noundef %14, i32 noundef 5) #11
  store ptr %15, ptr %2, align 8
  br label %16

16:                                               ; preds = %13, %11, %7
  %17 = load ptr, ptr %2, align 8
  ret ptr %17
}

; Function Attrs: nounwind uwtable
define internal void @report_invalid_attr(ptr noundef %0, i64 noundef %1, ptr noundef %2, i32 noundef %3) #0 {
  %5 = alloca ptr, align 8
  %6 = alloca i64, align 8
  %7 = alloca ptr, align 8
  %8 = alloca i32, align 4
  %9 = alloca %struct.strbuf, align 8
  store ptr %0, ptr %5, align 8, !tbaa !9
  store i64 %1, ptr %6, align 8, !tbaa !11
  store ptr %2, ptr %7, align 8, !tbaa !9
  store i32 %3, ptr %8, align 4, !tbaa !13
  call void @llvm.lifetime.start.p0(i64 24, ptr %9) #11
  call void @llvm.memcpy.p0.p0.i64(ptr align 8 %9, ptr align 8 @__const.report_invalid_attr.err, i64 24, i1 false)
  %10 = call ptr @_(ptr noundef @.str.16)
  %11 = load i64, ptr %6, align 8, !tbaa !11
  %12 = trunc i64 %11 to i32
  %13 = load ptr, ptr %5, align 8, !tbaa !9
  call void (ptr, ptr, ...) @strbuf_addf(ptr noundef %9, ptr noundef %10, i32 noundef %12, ptr noundef %13)
  %14 = load ptr, ptr @stderr, align 8, !tbaa !21
  %15 = getelementptr inbounds nuw %struct.strbuf, ptr %9, i32 0, i32 2
  %16 = load ptr, ptr %15, align 8, !tbaa !18
  %17 = load ptr, ptr %7, align 8, !tbaa !9
  %18 = load i32, ptr %8, align 4, !tbaa !13
  %19 = call i32 (ptr, ptr, ...) @fprintf(ptr noundef %14, ptr noundef @.str.17, ptr noundef %16, ptr noundef %17, i32 noundef %18) #11
  call void @strbuf_release(ptr noundef %9)
  call void @llvm.lifetime.end.p0(i64 24, ptr %9) #11
  ret void
}

; Function Attrs: nounwind uwtable
define internal i32 @attr_name_reserved(ptr noundef %0) #0 {
  %2 = alloca ptr, align 8
  store ptr %0, ptr %2, align 8, !tbaa !9
  %3 = load ptr, ptr %2, align 8, !tbaa !9
  %4 = call i32 @starts_with(ptr noundef %3, ptr noundef @.str.15)
  ret i32 %4
}

; Function Attrs: nounwind uwtable
define internal i32 @attr_name_valid(ptr noundef %0, i64 noundef %1) #0 {
  %3 = alloca i32, align 4
  %4 = alloca ptr, align 8
  %5 = alloca i64, align 8
  %6 = alloca i8, align 1
  %7 = alloca i32, align 4
  store ptr %0, ptr %4, align 8, !tbaa !9
  store i64 %1, ptr %5, align 8, !tbaa !11
  %8 = load i64, ptr %5, align 8, !tbaa !11
  %9 = icmp ule i64 %8, 0
  br i1 %9, label %15, label %10

10:                                               ; preds = %2
  %11 = load ptr, ptr %4, align 8, !tbaa !9
  %12 = load i8, ptr %11, align 1, !tbaa !17
  %13 = sext i8 %12 to i32
  %14 = icmp eq i32 %13, 45
  br i1 %14, label %15, label %16

15:                                               ; preds = %10, %2
  store i32 0, ptr %3, align 4
  br label %66

16:                                               ; preds = %10
  br label %17

17:                                               ; preds = %64, %16
  %18 = load i64, ptr %5, align 8, !tbaa !11
  %19 = add i64 %18, -1
  store i64 %19, ptr %5, align 8, !tbaa !11
  %20 = icmp ne i64 %18, 0
  br i1 %20, label %21, label %65

21:                                               ; preds = %17
  call void @llvm.lifetime.start.p0(i64 1, ptr %6) #11
  %22 = load ptr, ptr %4, align 8, !tbaa !9
  %23 = getelementptr inbounds nuw i8, ptr %22, i32 1
  store ptr %23, ptr %4, align 8, !tbaa !9
  %24 = load i8, ptr %22, align 1, !tbaa !17
  store i8 %24, ptr %6, align 1, !tbaa !17
  %25 = load i8, ptr %6, align 1, !tbaa !17
  %26 = sext i8 %25 to i32
  %27 = icmp eq i32 %26, 45
  br i1 %27, label %61, label %28

28:                                               ; preds = %21
  %29 = load i8, ptr %6, align 1, !tbaa !17
  %30 = sext i8 %29 to i32
  %31 = icmp eq i32 %30, 46
  br i1 %31, label %61, label %32

32:                                               ; preds = %28
  %33 = load i8, ptr %6, align 1, !tbaa !17
  %34 = sext i8 %33 to i32
  %35 = icmp eq i32 %34, 95
  br i1 %35, label %61, label %36

36:                                               ; preds = %32
  %37 = load i8, ptr %6, align 1, !tbaa !17
  %38 = sext i8 %37 to i32
  %39 = icmp sle i32 48, %38
  br i1 %39, label %40, label %44

40:                                               ; preds = %36
  %41 = load i8, ptr %6, align 1, !tbaa !17
  %42 = sext i8 %41 to i32
  %43 = icmp sle i32 %42, 57
  br i1 %43, label %61, label %44

44:                                               ; preds = %40, %36
  %45 = load i8, ptr %6, align 1, !tbaa !17
  %46 = sext i8 %45 to i32
  %47 = icmp sle i32 97, %46
  br i1 %47, label %48, label %52

48:                                               ; preds = %44
  %49 = load i8, ptr %6, align 1, !tbaa !17
  %50 = sext i8 %49 to i32
  %51 = icmp sle i32 %50, 122
  br i1 %51, label %61, label %52

52:                                               ; preds = %48, %44
  %53 = load i8, ptr %6, align 1, !tbaa !17
  %54 = sext i8 %53 to i32
  %55 = icmp sle i32 65, %54
  br i1 %55, label %56, label %60

56:                                               ; preds = %52
  %57 = load i8, ptr %6, align 1, !tbaa !17
  %58 = sext i8 %57 to i32
  %59 = icmp sle i32 %58, 90
  br i1 %59, label %61, label %60

60:                                               ; preds = %56, %52
  store i32 0, ptr %3, align 4
  store i32 1, ptr %7, align 4
  br label %62

61:                                               ; preds = %56, %48, %40, %32, %28, %21
  store i32 0, ptr %7, align 4
  br label %62

62:                                               ; preds = %61, %60
  call void @llvm.lifetime.end.p0(i64 1, ptr %6) #11
  %63 = load i32, ptr %7, align 4
  switch i32 %63, label %68 [
    i32 0, label %64
    i32 1, label %66
  ]

64:                                               ; preds = %62
  br label %17, !llvm.loop !26

65:                                               ; preds = %17
  store i32 1, ptr %3, align 4
  br label %66

66:                                               ; preds = %65, %62, %15
  %67 = load i32, ptr %3, align 4
  ret i32 %67

68:                                               ; preds = %62
  unreachable
}

; Function Attrs: nounwind uwtable
define internal ptr @parse_attr(ptr noundef %0, i32 noundef %1, ptr noundef %2, ptr noundef %3) #0 {
  %5 = alloca ptr, align 8
  %6 = alloca ptr, align 8
  %7 = alloca i32, align 4
  %8 = alloca ptr, align 8
  %9 = alloca ptr, align 8
  %10 = alloca ptr, align 8
  %11 = alloca ptr, align 8
  %12 = alloca i64, align 8
  %13 = alloca i32, align 4
  store ptr %0, ptr %6, align 8, !tbaa !9
  store i32 %1, ptr %7, align 4, !tbaa !13
  store ptr %2, ptr %8, align 8, !tbaa !9
  store ptr %3, ptr %9, align 8, !tbaa !27
  call void @llvm.lifetime.start.p0(i64 8, ptr %10) #11
  call void @llvm.lifetime.start.p0(i64 8, ptr %11) #11
  call void @llvm.lifetime.start.p0(i64 8, ptr %12) #11
  %14 = load ptr, ptr %8, align 8, !tbaa !9
  %15 = load ptr, ptr %8, align 8, !tbaa !9
  %16 = call i64 @strcspn(ptr noundef %15, ptr noundef @blank) #10
  %17 = getelementptr inbounds nuw i8, ptr %14, i64 %16
  store ptr %17, ptr %10, align 8, !tbaa !9
  %18 = load ptr, ptr %8, align 8, !tbaa !9
  %19 = call ptr @strchr(ptr noundef %18, i32 noundef 61) #10
  store ptr %19, ptr %11, align 8, !tbaa !9
  %20 = load ptr, ptr %11, align 8, !tbaa !9
  %21 = icmp ne ptr %20, null
  br i1 %21, label %22, label %27

22:                                               ; preds = %4
  %23 = load ptr, ptr %10, align 8, !tbaa !9
  %24 = load ptr, ptr %11, align 8, !tbaa !9
  %25 = icmp ult ptr %23, %24
  br i1 %25, label %26, label %27

26:                                               ; preds = %22
  store ptr null, ptr %11, align 8, !tbaa !9
  br label %27

27:                                               ; preds = %26, %22, %4
  %28 = load ptr, ptr %11, align 8, !tbaa !9
  %29 = icmp ne ptr %28, null
  br i1 %29, label %30, label %36

30:                                               ; preds = %27
  %31 = load ptr, ptr %11, align 8, !tbaa !9
  %32 = load ptr, ptr %8, align 8, !tbaa !9
  %33 = ptrtoint ptr %31 to i64
  %34 = ptrtoint ptr %32 to i64
  %35 = sub i64 %33, %34
  store i64 %35, ptr %12, align 8, !tbaa !11
  br label %42

36:                                               ; preds = %27
  %37 = load ptr, ptr %10, align 8, !tbaa !9
  %38 = load ptr, ptr %8, align 8, !tbaa !9
  %39 = ptrtoint ptr %37 to i64
  %40 = ptrtoint ptr %38 to i64
  %41 = sub i64 %39, %40
  store i64 %41, ptr %12, align 8, !tbaa !11
  br label %42

42:                                               ; preds = %36, %30
  %43 = load ptr, ptr %9, align 8, !tbaa !27
  %44 = icmp ne ptr %43, null
  br i1 %44, label %75, label %45

45:                                               ; preds = %42
  %46 = load ptr, ptr %8, align 8, !tbaa !9
  %47 = load i8, ptr %46, align 1, !tbaa !17
  %48 = sext i8 %47 to i32
  %49 = icmp eq i32 %48, 45
  br i1 %49, label %55, label %50

50:                                               ; preds = %45
  %51 = load ptr, ptr %8, align 8, !tbaa !9
  %52 = load i8, ptr %51, align 1, !tbaa !17
  %53 = sext i8 %52 to i32
  %54 = icmp eq i32 %53, 33
  br i1 %54, label %55, label %60

55:                                               ; preds = %50, %45
  %56 = load ptr, ptr %8, align 8, !tbaa !9
  %57 = getelementptr inbounds nuw i8, ptr %56, i32 1
  store ptr %57, ptr %8, align 8, !tbaa !9
  %58 = load i64, ptr %12, align 8, !tbaa !11
  %59 = add i64 %58, -1
  store i64 %59, ptr %12, align 8, !tbaa !11
  br label %60

60:                                               ; preds = %55, %50
  %61 = load ptr, ptr %8, align 8, !tbaa !9
  %62 = load i64, ptr %12, align 8, !tbaa !11
  %63 = call i32 @attr_name_valid(ptr noundef %61, i64 noundef %62)
  %64 = icmp ne i32 %63, 0
  br i1 %64, label %65, label %69

65:                                               ; preds = %60
  %66 = load ptr, ptr %8, align 8, !tbaa !9
  %67 = call i32 @attr_name_reserved(ptr noundef %66)
  %68 = icmp ne i32 %67, 0
  br i1 %68, label %69, label %74

69:                                               ; preds = %65, %60
  %70 = load ptr, ptr %8, align 8, !tbaa !9
  %71 = load i64, ptr %12, align 8, !tbaa !11
  %72 = load ptr, ptr %6, align 8, !tbaa !9
  %73 = load i32, ptr %7, align 4, !tbaa !13
  call void @report_invalid_attr(ptr noundef %70, i64 noundef %71, ptr noundef %72, i32 noundef %73)
  store ptr null, ptr %5, align 8
  store i32 1, ptr %13, align 4
  br label %127

74:                                               ; preds = %65
  br label %122

75:                                               ; preds = %42
  %76 = load ptr, ptr %8, align 8, !tbaa !9
  %77 = load i8, ptr %76, align 1, !tbaa !17
  %78 = sext i8 %77 to i32
  %79 = icmp eq i32 %78, 45
  br i1 %79, label %85, label %80

80:                                               ; preds = %75
  %81 = load ptr, ptr %8, align 8, !tbaa !9
  %82 = load i8, ptr %81, align 1, !tbaa !17
  %83 = sext i8 %82 to i32
  %84 = icmp eq i32 %83, 33
  br i1 %84, label %85, label %97

85:                                               ; preds = %80, %75
  %86 = load ptr, ptr %8, align 8, !tbaa !9
  %87 = load i8, ptr %86, align 1, !tbaa !17
  %88 = sext i8 %87 to i32
  %89 = icmp eq i32 %88, 45
  %90 = select i1 %89, ptr @git_attr__false, ptr null
  %91 = load ptr, ptr %9, align 8, !tbaa !27
  %92 = getelementptr inbounds nuw %struct.attr_state, ptr %91, i32 0, i32 1
  store ptr %90, ptr %92, align 8, !tbaa !29
  %93 = load ptr, ptr %8, align 8, !tbaa !9
  %94 = getelementptr inbounds nuw i8, ptr %93, i32 1
  store ptr %94, ptr %8, align 8, !tbaa !9
  %95 = load i64, ptr %12, align 8, !tbaa !11
  %96 = add i64 %95, -1
  store i64 %96, ptr %12, align 8, !tbaa !11
  br label %116

97:                                               ; preds = %80
  %98 = load ptr, ptr %11, align 8, !tbaa !9
  %99 = icmp ne ptr %98, null
  br i1 %99, label %103, label %100

100:                                              ; preds = %97
  %101 = load ptr, ptr %9, align 8, !tbaa !27
  %102 = getelementptr inbounds nuw %struct.attr_state, ptr %101, i32 0, i32 1
  store ptr @git_attr__true, ptr %102, align 8, !tbaa !29
  br label %115

103:                                              ; preds = %97
  %104 = load ptr, ptr %11, align 8, !tbaa !9
  %105 = getelementptr inbounds i8, ptr %104, i64 1
  %106 = load ptr, ptr %10, align 8, !tbaa !9
  %107 = load ptr, ptr %11, align 8, !tbaa !9
  %108 = ptrtoint ptr %106 to i64
  %109 = ptrtoint ptr %107 to i64
  %110 = sub i64 %108, %109
  %111 = sub nsw i64 %110, 1
  %112 = call ptr @xmemdupz(ptr noundef %105, i64 noundef %111)
  %113 = load ptr, ptr %9, align 8, !tbaa !27
  %114 = getelementptr inbounds nuw %struct.attr_state, ptr %113, i32 0, i32 1
  store ptr %112, ptr %114, align 8, !tbaa !29
  br label %115

115:                                              ; preds = %103, %100
  br label %116

116:                                              ; preds = %115, %85
  %117 = load ptr, ptr %8, align 8, !tbaa !9
  %118 = load i64, ptr %12, align 8, !tbaa !11
  %119 = call ptr @git_attr_internal(ptr noundef %117, i64 noundef %118)
  %120 = load ptr, ptr %9, align 8, !tbaa !27
  %121 = getelementptr inbounds nuw %struct.attr_state, ptr %120, i32 0, i32 0
  store ptr %119, ptr %121, align 8, !tbaa !31
  br label %122

122:                                              ; preds = %116, %74
  %123 = load ptr, ptr %10, align 8, !tbaa !9
  %124 = load ptr, ptr %10, align 8, !tbaa !9
  %125 = call i64 @strspn(ptr noundef %124, ptr noundef @blank) #10
  %126 = getelementptr inbounds nuw i8, ptr %123, i64 %125
  store ptr %126, ptr %5, align 8
  store i32 1, ptr %13, align 4
  br label %127

127:                                              ; preds = %122, %69
  call void @llvm.lifetime.end.p0(i64 8, ptr %12) #11
  call void @llvm.lifetime.end.p0(i64 8, ptr %11) #11
  call void @llvm.lifetime.end.p0(i64 8, ptr %10) #11
  %128 = load ptr, ptr %5, align 8
  ret ptr %128
}