; Function Attrs: nounwind uwtable
define internal fastcc ptr @parse_attr(ptr noundef %0, i32 noundef %1, ptr noundef %2, ptr noundef writeonly %3) unnamed_addr #1 {
  %5 = alloca %struct.strbuf, align 8
  %6 = tail call i64 @strcspn(ptr noundef %2, ptr noundef nonnull @blank) #20
  %7 = getelementptr inbounds nuw i8, ptr %2, i64 %6
  %8 = tail call ptr @strchr(ptr noundef nonnull dereferenceable(1) %2, i32 noundef 61) #20
  %.not = icmp eq ptr %8, null
  %9 = icmp ult ptr %7, %8
  %10 = select i1 %.not, i1 true, i1 %9
  %11 = ptrtoint ptr %8 to i64
  %12 = select i1 %10, i64 0, i64 %11
  %13 = ptrtoint ptr %2 to i64
  %14 = sub i64 %12, %13
  %.0 = select i1 %10, i64 %6, i64 %14
  %.not50 = icmp eq ptr %3, null
  %15 = load i8, ptr %2, align 1, !tbaa !4
  br i1 %.not50, label %16, label %43

16:                                               ; preds = %4
  switch i8 %15, label %20 [
    i8 45, label %17
    i8 33, label %17
  ]

17:                                               ; preds = %16, %16
  %18 = getelementptr inbounds nuw i8, ptr %2, i64 1
  %19 = add i64 %.0, -1
  br label %20

20:                                               ; preds = %16, %17
  %.042 = phi ptr [ %18, %17 ], [ %2, %16 ]
  %.1 = phi i64 [ %19, %17 ], [ %.0, %16 ]
  %21 = icmp eq i64 %.1, 0
  br i1 %21, label %attr_name_valid.exit.thread, label %22

22:                                               ; preds = %20
  %23 = load i8, ptr %.042, align 1, !tbaa !4
  %24 = icmp eq i8 %23, 45
  br i1 %24, label %attr_name_valid.exit.thread, label %.preheader.i

thread-pre-split.i:                               ; preds = %33
  %.pr.i = load i8, ptr %27, align 1, !tbaa !4
  br label %.preheader.i

.preheader.i:                                     ; preds = %22, %thread-pre-split.i
  %25 = phi i8 [ %.pr.i, %thread-pre-split.i ], [ %23, %22 ]
  %.in.i = phi i64 [ %26, %thread-pre-split.i ], [ %.1, %22 ]
  %.03036.i = phi ptr [ %27, %thread-pre-split.i ], [ %.042, %22 ]
  %26 = add i64 %.in.i, -1
  %27 = getelementptr inbounds nuw i8, ptr %.03036.i, i64 1
  switch i8 %25, label %28 [
    i8 95, label %33
    i8 46, label %33
    i8 45, label %33
  ]

28:                                               ; preds = %.preheader.i
  %29 = add i8 %25, -48
  %or.cond8.i = icmp ult i8 %29, 10
  %30 = and i8 %25, -33
  %31 = add i8 %30, -65
  %32 = icmp ult i8 %31, 26
  %or.cond33.i = or i1 %or.cond8.i, %32
  br i1 %or.cond33.i, label %33, label %attr_name_valid.exit.thread

33:                                               ; preds = %28, %.preheader.i, %.preheader.i, %.preheader.i
  %.not.i = icmp eq i64 %26, 0
  br i1 %.not.i, label %attr_name_valid.exit, label %thread-pre-split.i

attr_name_valid.exit:                             ; preds = %33
  %34 = tail call i32 @starts_with(ptr noundef nonnull %.042, ptr noundef nonnull @.str.15) #21
  %.not52 = icmp eq i32 %34, 0
  br i1 %.not52, label %62, label %attr_name_valid.exit.thread

attr_name_valid.exit.thread:                      ; preds = %28, %20, %22, %attr_name_valid.exit
  call void @llvm.lifetime.start.p0(i64 24, ptr nonnull %5) #21
  call void @llvm.memcpy.p0.p0.i64(ptr noundef nonnull align 8 dereferenceable(24) %5, ptr noundef nonnull align 8 dereferenceable(24) @__const.git_pathdup.path, i64 24, i1 false)
  %35 = load i32, ptr @git_gettext_enabled, align 4, !tbaa !22
  %.not4.i.i = icmp eq i32 %35, 0
  br i1 %.not4.i.i, label %report_invalid_attr.exit, label %36

36:                                               ; preds = %attr_name_valid.exit.thread
  %37 = tail call ptr @dcgettext(ptr noundef null, ptr noundef nonnull @.str.16, i32 noundef 5) #21
  br label %report_invalid_attr.exit

report_invalid_attr.exit:                         ; preds = %attr_name_valid.exit.thread, %36
  %.0.i.i = phi ptr [ %37, %36 ], [ @.str.16, %attr_name_valid.exit.thread ]
  %38 = trunc i64 %.1 to i32
  call void (ptr, ptr, ...) @strbuf_addf(ptr noundef nonnull %5, ptr noundef %.0.i.i, i32 noundef %38, ptr noundef nonnull %.042) #21
  %39 = load ptr, ptr @stderr, align 8, !tbaa !27
  %40 = getelementptr inbounds nuw i8, ptr %5, i64 16
  %41 = load ptr, ptr %40, align 8, !tbaa !23
  %42 = call i32 (ptr, ptr, ...) @fprintf(ptr noundef %39, ptr noundef nonnull @.str.17, ptr noundef %41, ptr noundef %0, i32 noundef %1) #23
  call void @strbuf_release(ptr noundef nonnull %5) #21
  call void @llvm.lifetime.end.p0(i64 24, ptr nonnull %5) #21
  br label %65

43:                                               ; preds = %4
  switch i8 %15, label %50 [
    i8 45, label %44
    i8 33, label %44
  ]

44:                                               ; preds = %43, %43
  %45 = icmp eq i8 %15, 45
  %46 = select i1 %45, ptr @git_attr__false, ptr null
  %47 = getelementptr inbounds nuw i8, ptr %3, i64 8
  store ptr %46, ptr %47, align 8, !tbaa !33
  %48 = getelementptr inbounds nuw i8, ptr %2, i64 1
  %49 = add i64 %.0, -1
  br label %60

50:                                               ; preds = %43
  br i1 %10, label %51, label %53

51:                                               ; preds = %50
  %52 = getelementptr inbounds nuw i8, ptr %3, i64 8
  store ptr @git_attr__true, ptr %52, align 8, !tbaa !33
  br label %60

53:                                               ; preds = %50
  %54 = getelementptr inbounds nuw i8, ptr %8, i64 1
  %55 = ptrtoint ptr %7 to i64
  %56 = xor i64 %12, -1
  %57 = add i64 %56, %55
  %58 = tail call ptr @xmemdupz(ptr noundef nonnull %54, i64 noundef %57) #21
  %59 = getelementptr inbounds nuw i8, ptr %3, i64 8
  store ptr %58, ptr %59, align 8, !tbaa !33
  br label %60

60:                                               ; preds = %51, %53, %44
  %.143 = phi ptr [ %48, %44 ], [ %2, %53 ], [ %2, %51 ]
  %.2 = phi i64 [ %49, %44 ], [ %14, %53 ], [ %6, %51 ]
  %61 = tail call fastcc ptr @git_attr_internal(ptr noundef nonnull %.143, i64 noundef %.2)
  store ptr %61, ptr %3, align 8, !tbaa !36
  br label %62

62:                                               ; preds = %attr_name_valid.exit, %60
  %63 = tail call i64 @strspn(ptr noundef nonnull %7, ptr noundef nonnull @blank) #20
  %64 = getelementptr inbounds nuw i8, ptr %7, i64 %63
  br label %65

65:                                               ; preds = %62, %report_invalid_attr.exit
  %.041 = phi ptr [ %64, %62 ], [ null, %report_invalid_attr.exit ]
  ret ptr %.041
}